target datalayout = "e-m:e-p270:32:32-p271:32:32-p272:64:64-i64:64-i128:128-f80:128-n8:16:32:64-S128"
target triple = "x86_64-unknown-linux-gnu"

%"struct.msdfgen::Vector2" = type { double, double }
%"class.msdfgen::EdgeSegment.base" = type <{ ptr, i32 }>
%"class.msdfgen::EdgeSegment" = type <{ ptr, i32, [4 x i8] }>
%"class.msdfgen::QuadraticSegment" = type { %"class.msdfgen::EdgeSegment.base", [3 x %"struct.msdfgen::Vector2"] }

@_ZN7msdfgen16QuadraticSegmentC1ENS_7Vector2ES1_S1_NS_9EdgeColorE = dso_local unnamed_addr alias void (ptr, double, double, double, double, double, double, i32), ptr @_ZN7msdfgen16QuadraticSegmentC2ENS_7Vector2ES1_S1_NS_9EdgeColorE

; Function Attrs: mustprogress uwtable
define dso_local noundef ptr @_ZNK7msdfgen16QuadraticSegment5cloneEv(ptr noundef nonnull align 8 dereferenceable(64) %this) unnamed_addr #0 align 2 personality ptr @__gxx_personality_v0 {
entry:
  %this.addr = alloca ptr, align 8
  %agg.tmp = alloca %"struct.msdfgen::Vector2", align 8
  %agg.tmp2 = alloca %"struct.msdfgen::Vector2", align 8
  %agg.tmp5 = alloca %"struct.msdfgen::Vector2", align 8
  %exn.slot = alloca ptr, align 8
  %ehselector.slot = alloca i32, align 4
  store ptr %this, ptr %this.addr, align 8
  %this1 = load ptr, ptr %this.addr, align 8
  %call = call noalias noundef nonnull ptr @_Znwm(i64 noundef 64) #9
  %p = getelementptr inbounds %"class.msdfgen::QuadraticSegment", ptr %this1, i32 0, i32 1
  %arrayidx = getelementptr inbounds [3 x %"struct.msdfgen::Vector2"], ptr %p, i64 0, i64 0
  call void @llvm.memcpy.p0.p0.i64(ptr align 8 %agg.tmp, ptr align 8 %arrayidx, i64 16, i1 false)
  %p3 = getelementptr inbounds %"class.msdfgen::QuadraticSegment", ptr %this1, i32 0, i32 1
  %arrayidx4 = getelementptr inbounds [3 x %"struct.msdfgen::Vector2"], ptr %p3, i64 0, i64 1
  call void @llvm.memcpy.p0.p0.i64(ptr align 8 %agg.tmp2, ptr align 8 %arrayidx4, i64 16, i1 false)
  %p6 = getelementptr inbounds %"class.msdfgen::QuadraticSegment", ptr %this1, i32 0, i32 1
  %arrayidx7 = getelementptr inbounds [3 x %"struct.msdfgen::Vector2"], ptr %p6, i64 0, i64 2
  call void @llvm.memcpy.p0.p0.i64(ptr align 8 %agg.tmp5, ptr align 8 %arrayidx7, i64 16, i1 false)
  %color = getelementptr inbounds %"class.msdfgen::EdgeSegment", ptr %this1, i32 0, i32 1
  %0 = load i32, ptr %color, align 8
  %1 = getelementptr inbounds { double, double }, ptr %agg.tmp, i32 0, i32 0
  %2 = load double, ptr %1, align 8
  %3 = getelementptr inbounds { double, double }, ptr %agg.tmp, i32 0, i32 1
  %4 = load double, ptr %3, align 8
  %5 = getelementptr inbounds { double, double }, ptr %agg.tmp2, i32 0, i32 0
  %6 = load double, ptr %5, align 8
  %7 = getelementptr inbounds { double, double }, ptr %agg.tmp2, i32 0, i32 1
  %8 = load double, ptr %7, align 8
  %9 = getelementptr inbounds { double, double }, ptr %agg.tmp5, i32 0, i32 0
  %10 = load double, ptr %9, align 8
  %11 = getelementptr inbounds { double, double }, ptr %agg.tmp5, i32 0, i32 1
  %12 = load double, ptr %11, align 8
  invoke void @_ZN7msdfgen16QuadraticSegmentC1ENS_7Vector2ES1_S1_NS_9EdgeColorE(ptr noundef nonnull align 8 dereferenceable(64) %call, double %2, double %4, double %6, double %8, double %10, double %12, i32 noundef %0)
          to label %invoke.cont unwind label %lpad

invoke.cont:                                      ; preds = %entry
  ret ptr %call

lpad:                                             ; preds = %entry
  %13 = landingpad { ptr, i32 }
          cleanup
  %14 = extractvalue { ptr, i32 } %13, 0
  store ptr %14, ptr %exn.slot, align 8
  %15 = extractvalue { ptr, i32 } %13, 1
  store i32 %15, ptr %ehselector.slot, align 4
  call void @_ZdlPv(ptr noundef %call) #10
  br label %eh.resume

eh.resume:                                        ; preds = %lpad
  %exn = load ptr, ptr %exn.slot, align 8
  %sel = load i32, ptr %ehselector.slot, align 4
  %lpad.val = insertvalue { ptr, i32 } poison, ptr %exn, 0
  %lpad.val8 = insertvalue { ptr, i32 } %lpad.val, i32 %sel, 1
  resume { ptr, i32 } %lpad.val8
}